target datalayout = "e-m:e-p270:32:32-p271:32:32-p272:64:64-i64:64-i128:128-f80:128-n8:16:32:64-S128"
target triple = "x86_64-pc-linux-gnu"

%struct._object = type { %union.anon, ptr }
%union.anon = type { i64 }
%struct.lzma_filter = type { i64, ptr }

@_Py_NoneStruct = external global %struct._object, align 8

; Function Attrs: nounwind uwtable
define internal void @free_filter_chain(ptr noundef %0) #0 {
  %2 = alloca ptr, align 8
  %3 = alloca i32, align 4
  store ptr %0, ptr %2, align 8, !tbaa !8
  call void @llvm.lifetime.start.p0(i64 4, ptr %3) #9
  store i32 0, ptr %3, align 4, !tbaa !12
  br label %4

4:                                                ; preds = %20, %1
  %5 = load ptr, ptr %2, align 8, !tbaa !8
  %6 = load i32, ptr %3, align 4, !tbaa !12
  %7 = sext i32 %6 to i64
  %8 = getelementptr %struct.lzma_filter, ptr %5, i64 %7
  %9 = getelementptr inbounds nuw %struct.lzma_filter, ptr %8, i32 0, i32 0
  %10 = load i64, ptr %9, align 8, !tbaa !22
  %11 = icmp ne i64 %10, -1
  br i1 %11, label %13, label %12

12:                                               ; preds = %4
  call void @llvm.lifetime.end.p0(i64 4, ptr %3) #9
  br label %23

13:                                               ; preds = %4
  %14 = load ptr, ptr %2, align 8, !tbaa !8
  %15 = load i32, ptr %3, align 4, !tbaa !12
  %16 = sext i32 %15 to i64
  %17 = getelementptr %struct.lzma_filter, ptr %14, i64 %16
  %18 = getelementptr inbounds nuw %struct.lzma_filter, ptr %17, i32 0, i32 1
  %19 = load ptr, ptr %18, align 8, !tbaa !25
  call void @PyMem_Free(ptr noundef %19)
  br label %20

20:                                               ; preds = %13
  %21 = load i32, ptr %3, align 4, !tbaa !12
  %22 = add i32 %21, 1
  store i32 %22, ptr %3, align 4, !tbaa !12
  br label %4, !llvm.loop !85

23:                                               ; preds = %12
  ret void
}

; Function Attrs: nounwind uwtable
define internal i32 @Compressor_init_xz(ptr noundef %0, ptr noundef %1, i32 noundef %2, i32 noundef %3, ptr noundef %4) #0 {
  %6 = alloca i32, align 4
  %7 = alloca ptr, align 8
  %8 = alloca ptr, align 8
  %9 = alloca i32, align 4
  %10 = alloca i32, align 4
  %11 = alloca ptr, align 8
  %12 = alloca i32, align 4
  %13 = alloca [5 x %struct.lzma_filter], align 16
  %14 = alloca i32, align 4
  store ptr %0, ptr %7, align 8, !tbaa !8
  store ptr %1, ptr %8, align 8, !tbaa !8
  store i32 %2, ptr %9, align 4, !tbaa !12
  store i32 %3, ptr %10, align 4, !tbaa !12
  store ptr %4, ptr %11, align 8, !tbaa !3
  call void @llvm.lifetime.start.p0(i64 4, ptr %12) #9
  %15 = load ptr, ptr %11, align 8, !tbaa !3
  %16 = icmp eq ptr %15, @_Py_NoneStruct
  br i1 %16, label %17, label %22

17:                                               ; preds = %5
  %18 = load ptr, ptr %8, align 8, !tbaa !8
  %19 = load i32, ptr %10, align 4, !tbaa !12
  %20 = load i32, ptr %9, align 4, !tbaa !12
  %21 = call i32 @lzma_easy_encoder(ptr noundef %18, i32 noundef %19, i32 noundef %20) #9
  store i32 %21, ptr %12, align 4, !tbaa !12
  br label %38

22:                                               ; preds = %5
  call void @llvm.lifetime.start.p0(i64 80, ptr %13) #9
  %23 = load ptr, ptr %7, align 8, !tbaa !8
  %24 = getelementptr inbounds [5 x %struct.lzma_filter], ptr %13, i64 0, i64 0
  %25 = load ptr, ptr %11, align 8, !tbaa !3
  %26 = call i32 @parse_filter_chain_spec(ptr noundef %23, ptr noundef %24, ptr noundef %25)
  %27 = icmp eq i32 %26, -1
  br i1 %27, label %28, label %29

28:                                               ; preds = %22
  store i32 -1, ptr %6, align 4
  store i32 1, ptr %14, align 4
  br label %35

29:                                               ; preds = %22
  %30 = load ptr, ptr %8, align 8, !tbaa !8
  %31 = getelementptr inbounds [5 x %struct.lzma_filter], ptr %13, i64 0, i64 0
  %32 = load i32, ptr %9, align 4, !tbaa !12
  %33 = call i32 @lzma_stream_encoder(ptr noundef %30, ptr noundef %31, i32 noundef %32) #9
  store i32 %33, ptr %12, align 4, !tbaa !12
  %34 = getelementptr inbounds [5 x %struct.lzma_filter], ptr %13, i64 0, i64 0
  call void @free_filter_chain(ptr noundef %34)
  store i32 0, ptr %14, align 4
  br label %35

35:                                               ; preds = %29, %28
  call void @llvm.lifetime.end.p0(i64 80, ptr %13) #9
  %36 = load i32, ptr %14, align 4
  switch i32 %36, label %45 [
    i32 0, label %37
  ]

37:                                               ; preds = %35
  br label %38

38:                                               ; preds = %37, %17
  %39 = load ptr, ptr %7, align 8, !tbaa !8
  %40 = load i32, ptr %12, align 4, !tbaa !12
  %41 = call i32 @catch_lzma_error(ptr noundef %39, i32 noundef %40)
  %42 = icmp ne i32 %41, 0
  br i1 %42, label %43, label %44

43:                                               ; preds = %38
  store i32 -1, ptr %6, align 4
  store i32 1, ptr %14, align 4
  br label %45

44:                                               ; preds = %38
  store i32 0, ptr %6, align 4
  store i32 1, ptr %14, align 4
  br label %45

45:                                               ; preds = %44, %43, %35
  call void @llvm.lifetime.end.p0(i64 4, ptr %12) #9
  %46 = load i32, ptr %6, align 4
  ret i32 %46
}