; Function Attrs: nounwind uwtable
define internal fastcc range(i32 -1, 1) i32 @Compressor_init_xz(ptr noundef readonly captures(none) %0, ptr noundef nonnull %1, i32 noundef %2, i32 noundef %3, ptr noundef %4) unnamed_addr #0 {
  %6 = alloca [5 x %struct.lzma_filter], align 16
  %7 = icmp eq ptr %4, @_Py_NoneStruct
  br i1 %7, label %8, label %10

8:                                                ; preds = %5
  %9 = tail call i32 @lzma_easy_encoder(ptr noundef nonnull %1, i32 noundef %3, i32 noundef %2) #10
  br label %22

10:                                               ; preds = %5
  call void @llvm.lifetime.start.p0(i64 80, ptr nonnull %6) #10
  %11 = call fastcc i32 @parse_filter_chain_spec(ptr noundef %0, ptr noundef %6, ptr noundef %4)
  %.not = icmp eq i32 %11, -1
  br i1 %.not, label %free_filter_chain.exit.thread, label %12

free_filter_chain.exit.thread:                    ; preds = %10
  call void @llvm.lifetime.end.p0(i64 80, ptr nonnull %6) #10
  br label %24

12:                                               ; preds = %10
  %13 = call i32 @lzma_stream_encoder(ptr noundef nonnull %1, ptr noundef nonnull %6, i32 noundef %2) #10
  %14 = load i64, ptr %6, align 16, !tbaa !16
  %.not4.i = icmp eq i64 %14, -1
  br i1 %.not4.i, label %free_filter_chain.exit.thread17, label %.lr.ph.i

free_filter_chain.exit.thread17:                  ; preds = %12
  call void @llvm.lifetime.end.p0(i64 80, ptr nonnull %6) #10
  br label %22

.lr.ph.i:                                         ; preds = %12, %.lr.ph.i
  %15 = phi ptr [ %20, %.lr.ph.i ], [ %6, %12 ]
  %.05.i = phi i32 [ %18, %.lr.ph.i ], [ 0, %12 ]
  %16 = getelementptr inbounds nuw i8, ptr %15, i64 8
  %17 = load ptr, ptr %16, align 8, !tbaa !21
  call void @PyMem_Free(ptr noundef %17) #10
  %18 = add i32 %.05.i, 1
  %19 = sext i32 %18 to i64
  %20 = getelementptr %struct.lzma_filter, ptr %6, i64 %19
  %21 = load i64, ptr %20, align 16, !tbaa !16
  %.not.i = icmp eq i64 %21, -1
  br i1 %.not.i, label %free_filter_chain.exit, label %.lr.ph.i, !llvm.loop !73

free_filter_chain.exit:                           ; preds = %.lr.ph.i
  call void @llvm.lifetime.end.p0(i64 80, ptr nonnull %6) #10
  br label %22

22:                                               ; preds = %free_filter_chain.exit, %free_filter_chain.exit.thread17, %8
  %.011 = phi i32 [ %9, %8 ], [ %13, %free_filter_chain.exit ], [ %13, %free_filter_chain.exit.thread17 ]
  %23 = call fastcc i32 @catch_lzma_error(ptr noundef %0, i32 noundef %.011)
  %sext = sub nsw i32 0, %23
  br label %24

24:                                               ; preds = %free_filter_chain.exit.thread, %22
  %.113 = phi i32 [ %sext, %22 ], [ -1, %free_filter_chain.exit.thread ]
  ret i32 %.113
}